; Function Attrs: mustprogress nounwind uwtable
define internal fastcc void @_ZN5eastl6vectorIN12_GLOBAL__N_111MovableTypeENS_9allocatorEED2Ev(ptr noundef nonnull readonly align 8 captures(none) dereferenceable(24) %this) unnamed_addr #5 align 2 personality ptr @__gxx_personality_v0 {
entry:
  %0 = load ptr, ptr %this, align 8
  %mpEnd = getelementptr inbounds nuw i8, ptr %this, i64 8
  %1 = load ptr, ptr %mpEnd, align 8
  %cmp.not3.i.i = icmp eq ptr %0, %1
  br i1 %cmp.not3.i.i, label %invoke.cont, label %for.body.i.i

for.body.i.i:                                     ; preds = %entry, %_ZN12_GLOBAL__N_111MovableTypeD2Ev.exit.i.i
  %first.addr.04.i.i = phi ptr [ %incdec.ptr.i.i, %_ZN12_GLOBAL__N_111MovableTypeD2Ev.exit.i.i ], [ %0, %entry ]
  %first.addr.0.val.i.i = load ptr, ptr %first.addr.04.i.i, align 8
  %isnull.i.i.i = icmp eq ptr %first.addr.0.val.i.i, null
  br i1 %isnull.i.i.i, label %_ZN12_GLOBAL__N_111MovableTypeD2Ev.exit.i.i, label %delete.notnull.i.i.i

delete.notnull.i.i.i:                             ; preds = %for.body.i.i
  tail call void @_ZdaPv(ptr noundef nonnull %first.addr.0.val.i.i) #19
  br label %_ZN12_GLOBAL__N_111MovableTypeD2Ev.exit.i.i

_ZN12_GLOBAL__N_111MovableTypeD2Ev.exit.i.i:      ; preds = %delete.notnull.i.i.i, %for.body.i.i
  %incdec.ptr.i.i = getelementptr inbounds nuw i8, ptr %first.addr.04.i.i, i64 8
  %cmp.not.i.i = icmp eq ptr %incdec.ptr.i.i, %1
  br i1 %cmp.not.i.i, label %invoke.contthread-pre-split, label %for.body.i.i, !llvm.loop !37

invoke.contthread-pre-split:                      ; preds = %_ZN12_GLOBAL__N_111MovableTypeD2Ev.exit.i.i
  %this.val.pr = load ptr, ptr %this, align 8
  br label %invoke.cont

invoke.cont:                                      ; preds = %invoke.contthread-pre-split, %entry
  %this.val = phi ptr [ %this.val.pr, %invoke.contthread-pre-split ], [ %0, %entry ]
  %tobool.not.i = icmp eq ptr %this.val, null
  br i1 %tobool.not.i, label %_ZN5eastl10VectorBaseIN12_GLOBAL__N_111MovableTypeENS_9allocatorEED2Ev.exit, label %_ZN5eastl9allocator10deallocateEPvm.exit.i

_ZN5eastl9allocator10deallocateEPvm.exit.i:       ; preds = %invoke.cont
  tail call void @_ZdaPv(ptr noundef nonnull %this.val) #19
  br label %_ZN5eastl10VectorBaseIN12_GLOBAL__N_111MovableTypeENS_9allocatorEED2Ev.exit

_ZN5eastl10VectorBaseIN12_GLOBAL__N_111MovableTypeENS_9allocatorEED2Ev.exit: ; preds = %invoke.cont, %_ZN5eastl9allocator10deallocateEPvm.exit.i
  ret void
}